target datalayout = "e-m:e-p270:32:32-p271:32:32-p272:64:64-i64:64-i128:128-f80:128-n8:16:32:64-S128"
target triple = "x86_64-pc-linux-gnu"

%struct._lv_chart_series_t = type { ptr, ptr, %struct.lv_color_t, i32, i8 }
%struct.lv_color_t = type { i8, i8, i8 }

; Function Attrs: nounwind uwtable
define void @lv_chart_refresh(ptr noundef %0) #0 {
  %2 = alloca ptr, align 8
  store ptr %0, ptr %2, align 8, !tbaa !3
  br label %3

3:                                                ; preds = %1
  br label %4

4:                                                ; preds = %3
  %5 = load ptr, ptr %2, align 8, !tbaa !3
  call void @lv_obj_invalidate(ptr noundef %5)
  ret void
}

; Function Attrs: nounwind uwtable
define void @lv_chart_set_series_color(ptr noundef %0, ptr noundef %1, i24 %2) #0 {
  %4 = alloca %struct.lv_color_t, align 1
  %5 = alloca ptr, align 8
  %6 = alloca ptr, align 8
  store i24 %2, ptr %4, align 1
  store ptr %0, ptr %5, align 8, !tbaa !3
  store ptr %1, ptr %6, align 8, !tbaa !3
  br label %7

7:                                                ; preds = %3
  br label %8

8:                                                ; preds = %7
  br label %9

9:                                                ; preds = %8
  %10 = load ptr, ptr %6, align 8, !tbaa !3
  %11 = icmp ne ptr %10, null
  br i1 %11, label %16, label %12

12:                                               ; preds = %9
  br label %13

13:                                               ; preds = %12
  br label %14

14:                                               ; preds = %13
  br label %15

15:                                               ; preds = %14, %15
  br label %15

16:                                               ; preds = %9
  br label %17

17:                                               ; preds = %16
  %18 = load ptr, ptr %6, align 8, !tbaa !3
  %19 = getelementptr inbounds nuw %struct._lv_chart_series_t, ptr %18, i32 0, i32 2
  call void @llvm.memcpy.p0.p0.i64(ptr align 8 %19, ptr align 1 %4, i64 3, i1 false), !tbaa.struct !41
  %20 = load ptr, ptr %5, align 8, !tbaa !3
  call void @lv_chart_refresh(ptr noundef %20)
  ret void
}