; Function Attrs: nounwind uwtable
define void @lv_chart_set_series_color(ptr noundef %0, ptr noundef writeonly %1, i24 %2) local_unnamed_addr #0 {
  %.not = icmp eq ptr %1, null
  br i1 %.not, label %.preheader, label %4

.preheader:                                       ; preds = %3, %.preheader
  br label %.preheader

4:                                                ; preds = %3
  %5 = getelementptr inbounds nuw i8, ptr %1, i64 16
  store i24 %2, ptr %5, align 8
  tail call void @lv_obj_invalidate(ptr noundef %0) #8
  ret void
}